#NO_APP
	.file	"NetworkInterface.c"
	.text
.Ltext0:
	.cfi_sections	.debug_frame
	.align	2
	.globl	release_allocated_descriptors
	.type	release_allocated_descriptors, @function
release_allocated_descriptors:
.LVL0:
.LFB0:
	.file 1 "FreeRTOS-Plus-TCP/portable/NetworkInterface/C2500/NetworkInterface.c"
	.loc 1 523 1 view -0
	.cfi_startproc
	.loc 1 523 1 is_stmt 0 view .LVU1
	movem.l #8240,-(%sp)
	.cfi_def_cfa_offset 16
	.cfi_offset 2, -16
	.cfi_offset 10, -12
	.cfi_offset 11, -8
	move.l 16(%sp),%d2
	.loc 1 524 5 is_stmt 1 view .LVU2
.LVL1:
	.loc 1 525 5 view .LVU3
	.loc 1 526 5 view .LVU4
	.loc 1 528 5 view .LVU5
	.loc 1 528 27 view .LVU6
	tst.b %d2
	jeq .L1
	lea LANCE_Rx_Descriptor_Ring,%a2
	subq.b #1,%d2
	and.l #255,%d2
	lsl.l #3,%d2
	add.l #LANCE_Rx_Descriptor_Ring+8,%d2
	.loc 1 532 9 is_stmt 0 view .LVU7
	lea vReleaseNetworkBufferAndDescriptor,%a3
.LVL2:
.L3:
	.loc 1 529 9 is_stmt 1 discriminator 3 view .LVU8
	.loc 1 530 9 discriminator 3 view .LVU9
	.loc 1 532 9 discriminator 3 view .LVU10
	.loc 1 529 85 is_stmt 0 discriminator 3 view .LVU11
	moveq #0,%d0
	move.b 3(%a2),%d0
	.loc 1 529 91 discriminator 3 view .LVU12
	swap %d0
	clr.w %d0
	.loc 1 529 67 discriminator 3 view .LVU13
	or.w (%a2),%d0
	.loc 1 532 9 discriminator 3 view .LVU14
	move.l %d0,%a0
	pea -10(%a0)
	.cfi_def_cfa_offset 20
.LVL3:
	.loc 1 532 9 discriminator 3 view .LVU15
	jsr (%a3)
.LVL4:
	.loc 1 528 43 is_stmt 1 discriminator 3 view .LVU16
	.loc 1 528 27 discriminator 3 view .LVU17
	addq.l #8,%a2
.LVL5:
	.loc 1 528 27 is_stmt 0 discriminator 3 view .LVU18
	addq.l #4,%sp
	.cfi_def_cfa_offset 16
	cmp.l %a2,%d2
	jne .L3
.LVL6:
.L1:
	.loc 1 534 1 view .LVU19
	movem.l (%sp)+,#3076
	rts
	.cfi_endproc
.LFE0:
	.size	release_allocated_descriptors, .-release_allocated_descriptors
	.align	2
	.globl	xNetworkInterfaceInitialise
	.type	xNetworkInterfaceInitialise, @function
xNetworkInterfaceInitialise:
.LFB1:
	.loc 1 539 1 is_stmt 1 view -0
	.cfi_startproc
	movem.l #12336,-(%sp)
	.cfi_def_cfa_offset 20
	.cfi_offset 2, -20
	.cfi_offset 3, -16
	.cfi_offset 10, -12
	.cfi_offset 11, -8
	.loc 1 540 5 view .LVU21
	.loc 1 541 5 view .LVU22
	.loc 1 542 5 view .LVU23
	.loc 1 543 5 view .LVU24
	.loc 1 544 5 view .LVU25
	.loc 1 545 5 view .LVU26
	.loc 1 546 5 view .LVU27
	.loc 1 547 5 view .LVU28
.LVL7:
	.loc 1 550 5 view .LVU29
	.loc 1 551 5 view .LVU30
	.loc 1 552 5 view .LVU31
	.loc 1 555 5 view .LVU32
	.loc 1 555 18 is_stmt 0 view .LVU33
	clr.w LANCE_Init_Block
	.loc 1 557 5 is_stmt 1 view .LVU34
	.loc 1 557 22 is_stmt 0 view .LVU35
	move.w #-12288,LANCE_Init_Block+2
	.loc 1 558 5 is_stmt 1 view .LVU36
	.loc 1 558 22 is_stmt 0 view .LVU37
	move.w #-21160,LANCE_Init_Block+4
	.loc 1 559 5 is_stmt 1 view .LVU38
	.loc 1 559 22 is_stmt 0 view .LVU39
	move.w #-17889,LANCE_Init_Block+6
	.loc 1 561 5 is_stmt 1 view .LVU40
	.loc 1 561 19 is_stmt 0 view .LVU41
	clr.l LANCE_Init_Block+8
	clr.l LANCE_Init_Block+12
	.loc 1 564 5 is_stmt 1 view .LVU42
	.loc 1 564 21 is_stmt 0 view .LVU43
	move.l #LANCE_Rx_Descriptor_Ring,%d0
	move.w %d0,LANCE_Init_Block+16
	.loc 1 565 5 is_stmt 1 view .LVU44
	.loc 1 565 23 is_stmt 0 view .LVU45
	move.l %d0,%a2
	.loc 1 565 38 view .LVU46
	clr.w %d0
	swap %d0
	.loc 1 565 21 view .LVU47
	move.w %d0,LANCE_Init_Block+18
	.loc 1 566 5 is_stmt 1 view .LVU48
	.loc 1 566 19 is_stmt 0 view .LVU49
	move.b LANCE_Init_Block+18,%d0
	and.b #31,%d0
	or.b #-128,%d0
	move.b %d0,LANCE_Init_Block+18
	.loc 1 569 5 is_stmt 1 view .LVU50
	.loc 1 569 21 is_stmt 0 view .LVU51
	move.l #LANCE_Tx_Descriptor_Ring,%d0
	move.w %d0,LANCE_Init_Block+20
	.loc 1 570 5 is_stmt 1 view .LVU52
	.loc 1 570 23 is_stmt 0 view .LVU53
	move.l %d0,%a0
	.loc 1 570 38 view .LVU54
	clr.w %d0
	swap %d0
	.loc 1 570 21 view .LVU55
	move.w %d0,LANCE_Init_Block+22
	.loc 1 571 5 is_stmt 1 view .LVU56
	.loc 1 571 19 is_stmt 0 view .LVU57
	move.b LANCE_Init_Block+22,%d0
	and.b #31,%d0
	or.b #-128,%d0
	move.b %d0,LANCE_Init_Block+22
	.loc 1 576 5 is_stmt 1 view .LVU58
.LVL8:
	.loc 1 576 27 view .LVU59
	move.l #LANCE_Tx_Descriptor_Ring+128,%d0
.LVL9:
.L6:
	.loc 1 578 9 discriminator 3 view .LVU60
	.loc 1 578 30 is_stmt 0 discriminator 3 view .LVU61
	clr.w (%a0)
	.loc 1 582 9 is_stmt 1 discriminator 3 view .LVU62
	.loc 1 582 30 is_stmt 0 discriminator 3 view .LVU63
	clr.w 2(%a0)
	.loc 1 585 9 is_stmt 1 discriminator 3 view .LVU64
	.loc 1 585 30 is_stmt 0 discriminator 3 view .LVU65
	move.w #-4096,4(%a0)
	.loc 1 587 9 is_stmt 1 discriminator 3 view .LVU66
	.loc 1 587 30 is_stmt 0 discriminator 3 view .LVU67
	clr.w 6(%a0)
	.loc 1 576 44 is_stmt 1 discriminator 3 view .LVU68
.LVL10:
	.loc 1 576 27 discriminator 3 view .LVU69
	addq.l #8,%a0
.LVL11:
	.loc 1 576 27 is_stmt 0 discriminator 3 view .LVU70
	cmp.l %a0,%d0
	jne .L6
	.loc 1 547 13 view .LVU71
	clr.b %d2
	.loc 1 594 15 view .LVU72
	lea pxGetNetworkBufferWithDescriptor,%a3
	.loc 1 614 31 view .LVU73
	move.w #-2550,%d3
.LVL12:
.L8:
	.loc 1 594 9 is_stmt 1 view .LVU74
	.loc 1 594 15 is_stmt 0 view .LVU75
	clr.l -(%sp)
	.cfi_def_cfa_offset 24
	pea 1546.w
	.cfi_def_cfa_offset 28
	jsr (%a3)
.LVL13:
	move.l %d0,%a0
.LVL14:
	.loc 1 596 9 is_stmt 1 view .LVU76
	.loc 1 596 12 is_stmt 0 view .LVU77
	addq.l #8,%sp
	.cfi_def_cfa_offset 20
	tst.l %d0
	jeq .L7
	.loc 1 602 9 is_stmt 1 discriminator 2 view .LVU78
	.loc 1 602 15 is_stmt 0 discriminator 2 view .LVU79
	addq.b #1,%d2
.LVL15:
	.loc 1 605 9 is_stmt 1 discriminator 2 view .LVU80
	.loc 1 605 31 is_stmt 0 discriminator 2 view .LVU81
	move.w 26(%a0),(%a2)
	.loc 1 609 9 is_stmt 1 discriminator 2 view .LVU82
	.loc 1 609 30 is_stmt 0 discriminator 2 view .LVU83
	move.w #-32768,2(%a2)
	.loc 1 610 9 is_stmt 1 discriminator 2 view .LVU84
	.loc 1 610 31 is_stmt 0 discriminator 2 view .LVU85
	move.b 25(%a0),3(%a2)
	.loc 1 613 9 is_stmt 1 discriminator 2 view .LVU86
	.loc 1 614 9 discriminator 2 view .LVU87
	.loc 1 614 31 is_stmt 0 discriminator 2 view .LVU88
	move.w %d3,4(%a2)
	.loc 1 616 9 is_stmt 1 discriminator 2 view .LVU89
	.loc 1 616 30 is_stmt 0 discriminator 2 view .LVU90
	clr.w 6(%a2)
	.loc 1 592 44 is_stmt 1 discriminator 2 view .LVU91
.LVL16:
	.loc 1 592 27 discriminator 2 view .LVU92
	addq.l #8,%a2
	cmp.b #16,%d2
	jne .L8
.L9:
	.loc 1 629 5 view .LVU93
	.loc 1 629 55 is_stmt 0 view .LVU94
	move.b 34799618,%d0
.LVL17:
	.loc 1 629 55 view .LVU95
	and.b #-4,%d0
	move.b %d0,34799618
	.loc 1 630 5 is_stmt 1 view .LVU96
	.loc 1 630 57 is_stmt 0 view .LVU97
	move.l #34799616,%a0
.LVL18:
	.loc 1 630 57 view .LVU98
	move.w (%a0),%d0
	or.w #4,%d0
	move.w %d0,(%a0)
	.loc 1 633 5 is_stmt 1 view .LVU99
	.loc 1 633 55 is_stmt 0 view .LVU100
	move.b 34799618,%d0
	and.b #-4,%d0
	or.b #1,%d0
	move.b %d0,34799618
	.loc 1 634 5 is_stmt 1 view .LVU101
	.loc 1 634 42 is_stmt 0 view .LVU102
	move.l #LANCE_Init_Block,%d0
	move.w %d0,(%a0)
	.loc 1 635 5 is_stmt 1 view .LVU103
	.loc 1 635 55 is_stmt 0 view .LVU104
	move.b 34799618,%d0
	and.b #-4,%d0
	or.b #2,%d0
	move.b %d0,34799618
	.loc 1 636 5 is_stmt 1 view .LVU105
	.loc 1 636 57 is_stmt 0 view .LVU106
	move.l #LANCE_Init_Block,%d0
	clr.w %d0
	swap %d0
	.loc 1 636 42 view .LVU107
	move.w %d0,(%a0)
	.loc 1 641 5 is_stmt 1 view .LVU108
	.loc 1 641 55 is_stmt 0 view .LVU109
	move.b 34799618,%d0
	or.b #3,%d0
	move.b %d0,34799618
	.loc 1 642 5 is_stmt 1 view .LVU110
	.loc 1 642 56 is_stmt 0 view .LVU111
	move.w #7,(%a0)
	.loc 1 644 5 is_stmt 1 view .LVU112
	.loc 1 644 55 is_stmt 0 view .LVU113
	move.b 34799618,%d0
	and.b #-4,%d0
	move.b %d0,34799618
	.loc 1 646 5 is_stmt 1 view .LVU114
	.loc 1 646 57 is_stmt 0 view .LVU115
	move.w (%a0),%d0
	or.w #2,%d0
	move.w %d0,(%a0)
	.loc 1 647 5 is_stmt 1 view .LVU116
	.loc 1 647 57 is_stmt 0 view .LVU117
	move.w (%a0),%d0
	or.w #1,%d0
	move.w %d0,(%a0)
	.loc 1 650 5 is_stmt 1 view .LVU118
.LVL19:
	.loc 1 650 23 view .LVU119
	.loc 1 647 57 is_stmt 0 view .LVU120
	moveq #4,%d1
.LVL20:
.L11:
	.loc 1 651 33 is_stmt 1 view .LVU121
	.loc 1 547 13 is_stmt 0 view .LVU122
	moveq #100,%d0
.LVL21:
.L12:
	.loc 1 651 43 is_stmt 1 discriminator 3 view .LVU123
	.loc 1 651 33 discriminator 3 view .LVU124
	subq.w #1,%d0
.LVL22:
	.loc 1 651 33 is_stmt 0 discriminator 3 view .LVU125
	jne .L12
	.loc 1 653 9 is_stmt 1 view .LVU126
	.loc 1 653 59 is_stmt 0 view .LVU127
	move.w 34799616,%d0
.LVL23:
	.loc 1 653 12 view .LVU128
	btst #8,%d0
	jne .L18
	.loc 1 650 31 is_stmt 1 discriminator 2 view .LVU129
.LVL24:
	.loc 1 650 23 discriminator 2 view .LVU130
	subq.w #1,%d1
.LVL25:
	.loc 1 650 23 is_stmt 0 discriminator 2 view .LVU131
	jne .L11
.L14:
	.loc 1 663 9 is_stmt 1 view .LVU132
	and.l #255,%d2
.LVL26:
	.loc 1 663 9 is_stmt 0 view .LVU133
	move.l %d2,-(%sp)
	.cfi_def_cfa_offset 24
	jsr release_allocated_descriptors
.LVL27:
	.loc 1 665 9 is_stmt 1 view .LVU134
	.loc 1 665 16 is_stmt 0 view .LVU135
	addq.l #4,%sp
	.cfi_def_cfa_offset 20
	moveq #0,%d0
	jra .L5
.LVL28:
.L7:
	.loc 1 619 5 is_stmt 1 view .LVU136
	.loc 1 619 8 is_stmt 0 view .LVU137
	cmp.b #15,%d2
	jhi .L9
	.loc 1 623 9 is_stmt 1 view .LVU138
	and.l #255,%d2
.LVL29:
	.loc 1 623 9 is_stmt 0 view .LVU139
	move.l %d2,-(%sp)
	.cfi_def_cfa_offset 24
	jsr release_allocated_descriptors
.LVL30:
	.loc 1 625 9 is_stmt 1 view .LVU140
	.loc 1 625 16 is_stmt 0 view .LVU141
	addq.l #4,%sp
	.cfi_def_cfa_offset 20
	moveq #0,%d0
	jra .L5
.LVL31:
.L18:
	.loc 1 654 13 is_stmt 1 view .LVU142
	.loc 1 654 65 is_stmt 0 view .LVU143
	move.l #34799616,%a0
	move.w (%a0),%d0
	or.w #256,%d0
	move.w %d0,(%a0)
	.loc 1 655 13 is_stmt 1 view .LVU144
	.loc 1 655 65 is_stmt 0 view .LVU145
	move.w (%a0),%d0
	or.w #64,%d0
	move.w %d0,(%a0)
	.loc 1 657 13 is_stmt 1 view .LVU146
	.loc 1 661 5 view .LVU147
	.loc 1 661 8 is_stmt 0 view .LVU148
	tst.w %d1
	jeq .L14
	.loc 1 669 12 view .LVU149
	moveq #1,%d0
.LVL32:
.L5:
	.loc 1 670 1 view .LVU150
	movem.l (%sp)+,#3084
	rts
	.cfi_endproc
.LFE1:
	.size	xNetworkInterfaceInitialise, .-xNetworkInterfaceInitialise
	.align	2
	.globl	vNetworkInterfaceAllocateRAMToBuffers
	.type	vNetworkInterfaceAllocateRAMToBuffers, @function
vNetworkInterfaceAllocateRAMToBuffers:
.LVL33:
.LFB2:
	.loc 1 674 1 is_stmt 1 view -0
	.cfi_startproc
	.loc 1 674 1 is_stmt 0 view .LVU152
	move.l %a2,-(%sp)
	.cfi_def_cfa_offset 8
	.cfi_offset 10, -8
	move.l %d2,-(%sp)
	.cfi_def_cfa_offset 12
	.cfi_offset 2, -12
	.loc 1 675 5 is_stmt 1 view .LVU153
	.loc 1 677 5 view .LVU154
.LVL34:
	.loc 1 677 27 view .LVU155
	move.l #LANCE_Buffers,%d0
	move.w #24,%a0
	add.l 12(%sp),%a0
	move.l #LANCE_Buffers+49472,%d1
.LVL35:
.L20:
	.loc 1 678 9 discriminator 3 view .LVU156
	.loc 1 678 51 is_stmt 0 discriminator 3 view .LVU157
	moveq #10,%d2
	add.l %d0,%d2
	move.l %d2,(%a0)
	.loc 1 679 9 is_stmt 1 discriminator 3 view .LVU158
	.loc 1 679 49 is_stmt 0 discriminator 3 view .LVU159
	lea (-24,%a0),%a2
	move.l %d0,%a1
	move.l %a2,(%a1)
	.loc 1 677 38 is_stmt 1 discriminator 3 view .LVU160
	.loc 1 677 27 discriminator 3 view .LVU161
	add.l #1546,%d0
	lea (36,%a0),%a0
	cmp.l %d0,%d1
	jne .L20
	.loc 1 681 1 is_stmt 0 view .LVU162
	move.l (%sp)+,%d2
	move.l (%sp)+,%a2
	rts
	.cfi_endproc
.LFE2:
	.size	vNetworkInterfaceAllocateRAMToBuffers, .-vNetworkInterfaceAllocateRAMToBuffers
	.align	2
	.globl	xNetworkInterfaceOutput
	.type	xNetworkInterfaceOutput, @function
xNetworkInterfaceOutput:
.LVL36:
.LFB3:
	.loc 1 685 1 is_stmt 1 view -0
	.cfi_startproc
	.loc 1 686 1 view .LVU164
	rts
	.cfi_endproc
.LFE3:
	.size	xNetworkInterfaceOutput, .-xNetworkInterfaceOutput
	.local	LANCE_Buffers
	.comm	LANCE_Buffers,49472,2
	.local	LANCE_Rx_Descriptor_Ring
	.comm	LANCE_Rx_Descriptor_Ring,128,8
	.local	LANCE_Tx_Descriptor_Ring
	.comm	LANCE_Tx_Descriptor_Ring,128,8
	.local	LANCE_Init_Block
	.comm	LANCE_Init_Block,24,2
.Letext0:
	.file 2 "../include/_types/_uint16_t.h"
	.file 3 "../include/_types/_uint32_t.h"
	.file 4 "../include/_types/_uint64_t.h"
	.file 5 "../include/_types/_uint8_t.h"
	.file 6 "../include/_types/_size_t.h"
	.file 7 "./FreeRTOS-Kernel/portable/GCC/m68k/portmacro.h"
	.file 8 "./FreeRTOS-Kernel/include/list.h"
	.file 9 "./FreeRTOS-Plus-TCP/include/FreeRTOS_IP.h"
	.file 10 "FreeRTOS-Plus-TCP/portable/NetworkInterface/C2500/C2500_LANCE.h"
	.file 11 "./FreeRTOS-Plus-TCP/include/NetworkBufferManagement.h"